; Function Attrs: nounwind uwtable
define internal i32 @cmac_final(ptr noundef readonly captures(none) %0, ptr noundef %1, ptr noundef %2, i64 %3) #0 {
  %5 = tail call i32 @ossl_prov_is_running() #3
  %.not = icmp eq i32 %5, 0
  br i1 %.not, label %10, label %6

6:                                                ; preds = %4
  %7 = getelementptr inbounds nuw i8, ptr %0, i64 8
  %8 = load ptr, ptr %7, align 8, !tbaa !3
  %9 = tail call i32 @CMAC_Final(ptr noundef %8, ptr noundef %1, ptr noundef %2) #3
  br label %10

10:                                               ; preds = %4, %6
  %.0 = phi i32 [ %9, %6 ], [ 0, %4 ]
  ret i32 %.0
}